; Function Attrs: mustprogress uwtable
define hidden void @_ZN17array_decl_plugin14get_sort_namesER7svectorI12builtin_namejERK6symbol(ptr nocapture nonnull readnone align 8 %this, ptr noundef nonnull align 8 dereferenceable(8) %sort_names, ptr nocapture noundef nonnull readonly align 8 dereferenceable(8) %logic) unnamed_addr #3 align 2 {
entry:
  %ref.tmp = alloca %struct.builtin_name, align 8
  %ref.tmp2 = alloca %struct.builtin_name, align 8
  %ref.tmp5 = alloca %class.symbol, align 8
  %ref.tmp7 = alloca %class.symbol, align 8
  %ref.tmp9 = alloca %struct.builtin_name, align 8
  store i32 0, ptr %ref.tmp, align 8
  %m_name.i = getelementptr inbounds i8, ptr %ref.tmp, i64 8
  call void @_ZN6symbolC1EPKc(ptr noundef nonnull align 8 dereferenceable(8) %m_name.i, ptr noundef nonnull @.str.16)
  %0 = load ptr, ptr %sort_names, align 8
  %cmp.i = icmp eq ptr %0, null
  br i1 %cmp.i, label %if.then.i, label %lor.lhs.false.i

lor.lhs.false.i:                                  ; preds = %entry
  %arrayidx.i = getelementptr inbounds i8, ptr %0, i64 -4
  %1 = load i32, ptr %arrayidx.i, align 4
  %arrayidx4.i = getelementptr inbounds i8, ptr %0, i64 -8
  %2 = load i32, ptr %arrayidx4.i, align 4
  %cmp5.i = icmp eq i32 %1, %2
  br i1 %cmp5.i, label %if.then.i, label %_ZN6vectorI12builtin_nameLb0EjE9push_backEOS0_.exit

if.then.i:                                        ; preds = %lor.lhs.false.i, %entry
  call void @_ZN6vectorI12builtin_nameLb0EjE13expand_vectorEv(ptr noundef nonnull align 8 dereferenceable(8) %sort_names)
  %.pre.i = load ptr, ptr %sort_names, align 8
  %arrayidx8.phi.trans.insert.i = getelementptr inbounds i8, ptr %.pre.i, i64 -4
  %.pre1.i = load i32, ptr %arrayidx8.phi.trans.insert.i, align 4
  br label %_ZN6vectorI12builtin_nameLb0EjE9push_backEOS0_.exit

_ZN6vectorI12builtin_nameLb0EjE9push_backEOS0_.exit: ; preds = %lor.lhs.false.i, %if.then.i
  %3 = phi i32 [ %.pre1.i, %if.then.i ], [ %1, %lor.lhs.false.i ]
  %4 = phi ptr [ %.pre.i, %if.then.i ], [ %0, %lor.lhs.false.i ]
  %idx.ext.i = zext i32 %3 to i64
  %add.ptr.i = getelementptr inbounds %struct.builtin_name, ptr %4, i64 %idx.ext.i
  call void @llvm.memcpy.p0.p0.i64(ptr noundef nonnull align 8 dereferenceable(16) %add.ptr.i, ptr noundef nonnull align 8 dereferenceable(16) %ref.tmp, i64 16, i1 false)
  %5 = load ptr, ptr %sort_names, align 8
  %arrayidx10.i = getelementptr inbounds i8, ptr %5, i64 -4
  %6 = load i32, ptr %arrayidx10.i, align 4
  %inc.i = add i32 %6, 1
  store i32 %inc.i, ptr %arrayidx10.i, align 4
  store i32 0, ptr %ref.tmp2, align 8
  %m_name.i5 = getelementptr inbounds i8, ptr %ref.tmp2, i64 8
  call void @_ZN6symbolC1EPKc(ptr noundef nonnull align 8 dereferenceable(8) %m_name.i5, ptr noundef nonnull @.str.70)
  %7 = load ptr, ptr %sort_names, align 8
  %cmp.i6 = icmp eq ptr %7, null
  br i1 %cmp.i6, label %if.then.i15, label %lor.lhs.false.i7

lor.lhs.false.i7:                                 ; preds = %_ZN6vectorI12builtin_nameLb0EjE9push_backEOS0_.exit
  %arrayidx.i8 = getelementptr inbounds i8, ptr %7, i64 -4
  %8 = load i32, ptr %arrayidx.i8, align 4
  %arrayidx4.i9 = getelementptr inbounds i8, ptr %7, i64 -8
  %9 = load i32, ptr %arrayidx4.i9, align 4
  %cmp5.i10 = icmp eq i32 %8, %9
  br i1 %cmp5.i10, label %if.then.i15, label %_ZN6vectorI12builtin_nameLb0EjE9push_backEOS0_.exit19

if.then.i15:                                      ; preds = %lor.lhs.false.i7, %_ZN6vectorI12builtin_nameLb0EjE9push_backEOS0_.exit
  call void @_ZN6vectorI12builtin_nameLb0EjE13expand_vectorEv(ptr noundef nonnull align 8 dereferenceable(8) %sort_names)
  %.pre.i16 = load ptr, ptr %sort_names, align 8
  %arrayidx8.phi.trans.insert.i17 = getelementptr inbounds i8, ptr %.pre.i16, i64 -4
  %.pre1.i18 = load i32, ptr %arrayidx8.phi.trans.insert.i17, align 4
  br label %_ZN6vectorI12builtin_nameLb0EjE9push_backEOS0_.exit19

_ZN6vectorI12builtin_nameLb0EjE9push_backEOS0_.exit19: ; preds = %lor.lhs.false.i7, %if.then.i15
  %10 = phi i32 [ %.pre1.i18, %if.then.i15 ], [ %8, %lor.lhs.false.i7 ]
  %11 = phi ptr [ %.pre.i16, %if.then.i15 ], [ %7, %lor.lhs.false.i7 ]
  %idx.ext.i11 = zext i32 %10 to i64
  %add.ptr.i12 = getelementptr inbounds %struct.builtin_name, ptr %11, i64 %idx.ext.i11
  call void @llvm.memcpy.p0.p0.i64(ptr noundef nonnull align 8 dereferenceable(16) %add.ptr.i12, ptr noundef nonnull align 8 dereferenceable(16) %ref.tmp2, i64 16, i1 false)
  %12 = load ptr, ptr %sort_names, align 8
  %arrayidx10.i13 = getelementptr inbounds i8, ptr %12, i64 -4
  %13 = load i32, ptr %arrayidx10.i13, align 4
  %inc.i14 = add i32 %13, 1
  store i32 %inc.i14, ptr %arrayidx10.i13, align 4
  %14 = load ptr, ptr %logic, align 8
  %15 = load ptr, ptr @_ZN6symbol4nullE, align 8
  %cmp.i20 = icmp eq ptr %14, %15
  br i1 %cmp.i20, label %if.then, label %lor.lhs.false

lor.lhs.false:                                    ; preds = %_ZN6vectorI12builtin_nameLb0EjE9push_backEOS0_.exit19
  call void @_ZN6symbolC1EPKc(ptr noundef nonnull align 8 dereferenceable(8) %ref.tmp5, ptr noundef nonnull @.str.71)
  %16 = load ptr, ptr %logic, align 8
  %17 = load ptr, ptr %ref.tmp5, align 8
  %cmp.i21 = icmp eq ptr %16, %17
  br i1 %cmp.i21, label %if.then, label %lor.rhs

lor.rhs:                                          ; preds = %lor.lhs.false
  call void @_ZN6symbolC1EPKc(ptr noundef nonnull align 8 dereferenceable(8) %ref.tmp7, ptr noundef nonnull @.str.72)
  %18 = load ptr, ptr %logic, align 8
  %19 = load ptr, ptr %ref.tmp7, align 8
  %cmp.i22 = icmp eq ptr %18, %19
  br i1 %cmp.i22, label %if.then, label %if.end

if.then:                                          ; preds = %lor.lhs.false, %_ZN6vectorI12builtin_nameLb0EjE9push_backEOS0_.exit19, %lor.rhs
  store i32 1, ptr %ref.tmp9, align 8
  %m_name.i23 = getelementptr inbounds i8, ptr %ref.tmp9, i64 8
  call void @_ZN6symbolC1EPKc(ptr noundef nonnull align 8 dereferenceable(8) %m_name.i23, ptr noundef nonnull @.str.73)
  %20 = load ptr, ptr %sort_names, align 8
  %cmp.i24 = icmp eq ptr %20, null
  br i1 %cmp.i24, label %if.then.i33, label %lor.lhs.false.i25

lor.lhs.false.i25:                                ; preds = %if.then
  %arrayidx.i26 = getelementptr inbounds i8, ptr %20, i64 -4
  %21 = load i32, ptr %arrayidx.i26, align 4
  %arrayidx4.i27 = getelementptr inbounds i8, ptr %20, i64 -8
  %22 = load i32, ptr %arrayidx4.i27, align 4
  %cmp5.i28 = icmp eq i32 %21, %22
  br i1 %cmp5.i28, label %if.then.i33, label %_ZN6vectorI12builtin_nameLb0EjE9push_backEOS0_.exit37

if.then.i33:                                      ; preds = %lor.lhs.false.i25, %if.then
  call void @_ZN6vectorI12builtin_nameLb0EjE13expand_vectorEv(ptr noundef nonnull align 8 dereferenceable(8) %sort_names)
  %.pre.i34 = load ptr, ptr %sort_names, align 8
  %arrayidx8.phi.trans.insert.i35 = getelementptr inbounds i8, ptr %.pre.i34, i64 -4
  %.pre1.i36 = load i32, ptr %arrayidx8.phi.trans.insert.i35, align 4
  br label %_ZN6vectorI12builtin_nameLb0EjE9push_backEOS0_.exit37

_ZN6vectorI12builtin_nameLb0EjE9push_backEOS0_.exit37: ; preds = %lor.lhs.false.i25, %if.then.i33
  %23 = phi i32 [ %.pre1.i36, %if.then.i33 ], [ %21, %lor.lhs.false.i25 ]
  %24 = phi ptr [ %.pre.i34, %if.then.i33 ], [ %20, %lor.lhs.false.i25 ]
  %idx.ext.i29 = zext i32 %23 to i64
  %add.ptr.i30 = getelementptr inbounds %struct.builtin_name, ptr %24, i64 %idx.ext.i29
  call void @llvm.memcpy.p0.p0.i64(ptr noundef nonnull align 8 dereferenceable(16) %add.ptr.i30, ptr noundef nonnull align 8 dereferenceable(16) %ref.tmp9, i64 16, i1 false)
  %25 = load ptr, ptr %sort_names, align 8
  %arrayidx10.i31 = getelementptr inbounds i8, ptr %25, i64 -4
  %26 = load i32, ptr %arrayidx10.i31, align 4
  %inc.i32 = add i32 %26, 1
  store i32 %inc.i32, ptr %arrayidx10.i31, align 4
  br label %if.end

if.end:                                           ; preds = %_ZN6vectorI12builtin_nameLb0EjE9push_backEOS0_.exit37, %lor.rhs
  ret void
}